; Function Attrs: nounwind uwtable
define i32 @EVP_PKEY_print_public_fp(ptr noundef %0, ptr noundef %1, i32 noundef %2, ptr noundef %3) local_unnamed_addr #0 {
  %5 = tail call ptr @BIO_new_fp(ptr noundef %0, i32 noundef 0) #12
  %6 = icmp eq ptr %5, null
  br i1 %6, label %16, label %7

7:                                                ; preds = %4
  %8 = getelementptr inbounds nuw i8, ptr %1, i64 8
  %9 = load ptr, ptr %8, align 8, !tbaa !20
  %.not.i = icmp eq ptr %9, null
  br i1 %.not.i, label %EVP_PKEY_print_public.exit, label %10

10:                                               ; preds = %7
  %11 = getelementptr inbounds nuw i8, ptr %9, i64 56
  %12 = load ptr, ptr %11, align 8, !tbaa !91
  br label %EVP_PKEY_print_public.exit

EVP_PKEY_print_public.exit:                       ; preds = %7, %10
  %13 = phi ptr [ %12, %10 ], [ null, %7 ]
  %14 = tail call fastcc i32 @print_pkey(ptr noundef nonnull %1, ptr noundef nonnull %5, i32 noundef %2, i32 noundef 134, ptr noundef %13, ptr noundef %3)
  %15 = tail call i32 @BIO_free(ptr noundef nonnull %5) #12
  br label %16

16:                                               ; preds = %4, %EVP_PKEY_print_public.exit
  %.0 = phi i32 [ %14, %EVP_PKEY_print_public.exit ], [ 0, %4 ]
  ret i32 %.0
}